(dp1
S'frequent_feats'
p2
c__builtin__
set
p3
((lp4
S'C26-c84c4aec'
p5
aS'C19-9437f62f'
p6
aS'C8-c8ddd494'
p7
aS'C18-e7e991cb'
p8
aS'C12-d8c29807'
p9
aS'C2-9819deea'
p10
aS'C24-335a6a1e'
p11
aS'C7-81bb0302'
p12
aS'C23-32c7478e'
p13
aS'C18-bc5a0ff7'
p14
aS'C24-'
p15
aS'C15-f511c49f'
p16
aS'C13-04e4a7e0'
p17
aS'C12-dfbb09fb'
p18
aS'C15-bfef54b3'
p19
aS'C3-9143c832'
p20
aS'C24-45ab94c8'
p21
aS'C21-60f6221e'
p22
aS'C15-dbc5e126'
p23
aS'C11-dd6fc8cb'
p24
aS'C7-9b98e9fc'
p25
aS'C13-00e20e7b'
p26
aS'C15-18231224'
p27
aS'C12-2397259a'
p28
aS'C18-7ef5affa'
p29
aS'C24-ded4aac9'
p30
aS'C13-18fc2b1e'
p31
aS'C16-aafa191e'
p32
aS'C10-0e9ead52'
p33
aS'C22-78e2e389'
p34
aS'C25-001f3601'
p35
aS'C21-0014c32a'
p36
aS'C11-a0a5e9d7'
p37
aS'C23-be7c41b4'
p38
aS'C6-3bf701e7'
p39
aS'C23-55dd3565'
p40
aS'C15-52baadf5'
p41
aS'C16-da441c7e'
p42
aS'C13-62036f49'
p43
aS'C4-'
p44
aS'C18-87c6f83c'
p45
aS'C15-e3209fc2'
p46
aS'C19-1d1eb838'
p47
aS'C15-dfab705f'
p48
aS'C15-10040656'
p49
aS'C8-6c41e35e'
p50
aS'C11-f25fe7e9'
p51
aS'C18-698d1c68'
p52
aS'C16-c6b1e1b2'
p53
aS'C11-371dae82'
p54
aS'C18-005c6740'
p55
aS'C11-29e4ad33'
p56
aS'C26-2fede552'
p57
aS'C12-6aaba33c'
p58
aS'C6-fe6b92e5'
p59
aS'C7-3f4ec687'
p60
aS'C6-fbad5c96'
p61
aS'C5-30903e74'
p62
aS'C7-cc5ed2f1'
p63
aS'C17-07c540c4'
p64
aS'C18-bd17c3da'
p65
aS'C11-c1ee56d0'
p66
aS'C2-39dfaa0d'
p67
aS'C1-ae82ea21'
p68
aS'C10-fa7d0797'
p69
aS'C4-d16679b9'
p70
aS'C16-b041b04a'
p71
aS'C14-64c94865'
p72
aS'C11-7f8ffe57'
p73
aS'C2-58e67aaf'
p74
aS'C18-a78bd508'
p75
aS'C11-e51ddf94'
p76
aS'C15-7f6af6b0'
p77
aS'C16-2b2ce127'
p78
aS'C23-423fab69'
p79
aS'C11-5874c9c9'
p80
aS'C10-dcbc7c2b'
p81
aS'C3-4470baf4'
p82
aS'C10-efea433b'
p83
aS'C17-3486227d'
p84
aS'C5-b0530c50'
p85
aS'C2-3df44d94'
p86
aS'C13-dd183b4c'
p87
aS'C16-bad5ee18'
p88
aS'C24-f96a556f'
p89
aS'C8-51d76abe'
p90
aS'C21-b6119319'
p91
aS'C13-4c9ff09f'
p92
aS'C24-3fdb382b'
p93
aS'C16-c92f3b61'
p94
aS'C13-6e5da64f'
p95
aS'C2-4f25e98b'
p96
aS'C11-f1b78ab4'
p97
aS'C4-13508380'
p98
aS'C13-46f42a63'
p99
aS'C18-891589e7'
p100
aS'C15-9efd8b77'
p101
aS'C4-3e2bfbda'
p102
aS'C15-4c1df281'
p103
aS'C18-1f868fdd'
p104
aS'C22-ad3062eb'
p105
aS'C15-8dbc001a'
p106
aS'C8-062b5529'
p107
aS'C5-0942e0a7'
p108
aS'C26-984e0db0'
p109
aS'C2-403ea497'
p110
aS'C5-384874ce'
p111
aS'C26-c27f155b'
p112
aS'C8-66f29b89'
p113
aS'C2-80e26c9b'
p114
aS'C13-80467802'
p115
aS'C1-39af2607'
p116
aS'C11-ad757a5a'
p117
aS'C15-943169c2'
p118
aS'C7-970f01b2'
p119
aS'C4-9a6888fb'
p120
aS'C19-6f3756eb'
p121
aS'C25-b9266ff0'
p122
aS'C15-8ab5b746'
p123
aS'C13-1aa94af3'
p124
aS'C17-8efede7f'
p125
aS'C11-77212bd7'
p126
aS'C6-6f6d9be8'
p127
aS'C4-82a61820'
p128
aS'C15-d002b6d9'
p129
aS'C2-68b3edbf'
p130
aS'C15-3628a186'
p131
aS'C25-f0f449dd'
p132
aS'C4-f56b7dd5'
p133
aS'C13-1f9d2c38'
p134
aS'C16-f8b34416'
p135
aS'C5-4cf72387'
p136
aS'C24-08b0ce98'
p137
aS'C18-df4fffb7'
p138
aS'C21-7e5b7cc4'
p139
aS'C1-241546e0'
p140
aS'C3-77f2f2e5'
p141
aS'C19-efa3470f'
p142
aS'C2-08d6d899'
p143
aS'C4-b9c629a9'
p144
aS'C2-2c16a946'
p145
aS'C24-3b183c5c'
p146
aS'C2-8084ee93'
p147
aS'C24-1793a828'
p148
aS'C12-a2f4e8b5'
p149
aS'C17-776ce399'
p150
aS'C16-1203a270'
p151
aS'C10-7f79890b'
p152
aS'C2-287130e0'
p153
aS'C10-547c0ffe'
p154
aS'C5-f281d2a7'
p155
aS'C14-07d13a8f'
p156
aS'C14-f7c1b33f'
p157
aS'C4-29998ed1'
p158
aS'C15-2d0bb053'
p159
aS'C14-b28479f6'
p160
aS'C18-e96a7df2'
p161
aS'C24-8f079aa5'
p162
aS'C13-ee79db7b'
p163
aS'C2-0b8e9caf'
p164
aS'C18-eea3ab97'
p165
aS'C12-623049e6'
p166
aS'C24-aee52b6f'
p167
aS'C16-87acb535'
p168
aS'C2-207b2d81'
p169
aS'C23-bcdee96c'
p170
aS'C15-1150f5ed'
p171
aS'C1-68fd1e64'
p172
aS'C14-8ceecbc8'
p173
aS'C3-b009d929'
p174
aS'C22-'
p175
aS'C10-5ba575e7'
p176
aS'C13-768f6658'
p177
aS'C7-fe4dce68'
p178
aS'C21-2754aaf1'
p179
aS'C7-ce4f7f55'
p180
aS'C18-2804effd'
p181
aS'C10-6c47047a'
p182
aS'C5-b2241560'
p183
aS'C21-a4b7004c'
p184
aS'C1-f473b8dc'
p185
aS'C2-f0cf0024'
p186
aS'C15-7ac43a46'
p187
aS'C15-10935a85'
p188
aS'C7-38eb9cf4'
p189
aS'C11-36bccca0'
p190
aS'C12-b99ddbc8'
p191
aS'C18-5bb2ec8e'
p192
aS'C19-712d530c'
p193
aS'C26-aa5f0a15'
p194
aS'C21-5f957280'
p195
aS'C11-38f692a7'
p196
aS'C3-'
p197
aS'C7-d0bdaa98'
p198
aS'C8-0b153874'
p199
aS'C1-05db9164'
p200
aS'C25-ea9a246c'
p201
aS'C2-5dac953d'
p202
aS'C2-0a519c5c'
p203
aS'C18-7b49e3d2'
p204
aS'C13-9f16a973'
p205
aS'C11-755e4a50'
p206
aS'C4-f922efad'
p207
aS'C22-c9d4222a'
p208
aS'C15-36721ddc'
p209
aS'C15-b760dcb7'
p210
aS'C12-bb669e25'
p211
aS'C12-'
p212
aS'C16-'
p213
aS'C2-6887a43c'
p214
aS'C11-a7b606c4'
p215
aS'C4-85dd697c'
p216
aS'C3-e346a5fd'
p217
aS'C15-d2f03b75'
p218
aS'C12-21a23bfe'
p219
aS'C17-d4bb7bd8'
p220
aS'C13-949ea585'
p221
aS'C15-41f10449'
p222
aS'C13-879fa878'
p223
aS'C17-e5ba7672'
p224
aS'C21-723b4dfd'
p225
aS'C18-752d8b8a'
p226
aS'C26-'
p227
aS'C25-010f6491'
p228
aS'C25-2bf691b1'
p229
aS'C12-9f32b866'
p230
aS'C21-2b796e4a'
p231
aS'C11-434d6c13'
p232
aS'C13-7301027a'
p233
aS'C13-025225f2'
p234
aS'C18-7e32f7a4'
p235
aS'C24-8fc66e78'
p236
aS'C18-13145934'
p237
aS'C17-2005abd1'
p238
aS'C21-'
p239
aS'C25-cb079c2d'
p240
aS'C2-0468d672'
p241
aS'C7-dc7659bd'
p242
aS'C6-7e0ccccf'
p243
aS'C7-49b74ebc'
p244
aS'C18-9880032b'
p245
aS'C8-1f89b562'
p246
aS'C11-9e511730'
p247
aS'C13-3516f6e6'
p248
aS'C13-e40e52ae'
p249
aS'C18-582152eb'
p250
aS'C26-b7d9c3bc'
p251
aS'C11-b7094596'
p252
aS'C21-0429f84b'
p253
aS'C18-ca6a63cf'
p254
aS'C2-e5fb1af3'
p255
aS'C8-64523cfa'
p256
aS'C18-63cdbb21'
p257
aS'C21-c2a93b37'
p258
aS'C25-9d93af03'
p259
aS'C24-8d365d3b'
p260
aS'C2-421b43cd'
p261
aS'C9-a73ee510'
p262
aS'C18-449d6705'
p263
aS'C2-38d50e09'
p264
aS'C13-93b18cb5'
p265
aS'C18-74ef3502'
p266
aS'C2-4c2bc594'
p267
aS'C2-ae46a29d'
p268
aS'C18-2efa89c6'
p269
aS'C2-942f9a8d'
p270
aS'C2-8cc9c66e'
p271
aS'C21-73d06dde'
p272
aS'C12-fb8fab62'
p273
aS'C13-b55434a9'
p274
aS'C19-1d04f4a4'
p275
aS'C18-52e44668'
p276
aS'C17-27c07bd6'
p277
aS'C16-84898b2a'
p278
aS'C25-724b04da'
p279
aS'C16-36103458'
p280
aS'C23-c7dc6720'
p281
aS'C24-9117a34a'
p282
aS'C23-93bad2c0'
p283
aS'C1-5a9ed9b0'
p284
aS'C18-f54016b9'
p285
aS'C3-b00d1501'
p286
aS'C1-be589b51'
p287
aS'C16-c64d548f'
p288
aS'C8-25239412'
p289
aS'C21-f3ddd519'
p290
aS'C4-8c8a4c47'
p291
aS'C4-22504558'
p292
aS'C11-17586bd8'
p293
aS'C2-e112a9de'
p294
aS'C19-21ddcdc9'
p295
aS'C13-85dbe138'
p296
aS'C25-'
p297
aS'C2-89ddfee8'
p298
aS'C24-df487a73'
p299
aS'C13-7203f04e'
p300
aS'C13-740c210d'
p301
aS'C24-b258af68'
p302
aS'C3-ad4b77ff'
p303
aS'C18-bc48b783'
p304
aS'C12-8fe001f4'
p305
aS'C2-04e09220'
p306
aS'C15-a8e962af'
p307
aS'C3-02391f51'
p308
aS'C25-47907db5'
p309
aS'C13-ebd756bd'
p310
aS'C11-a60de4e5'
p311
aS'C18-e4ca448c'
p312
aS'C22-8ec974f4'
p313
aS'C13-eae197fd'
p314
aS'C20-b1252a9d'
p315
aS'C1-87552397'
p316
aS'C23-3a171ecb'
p317
aS'C21-e587c466'
p318
aS'C14-1adce6ef'
p319
aS'C17-1e88c74f'
p320
aS'C13-9be66b48'
p321
aS'C23-dbb486d7'
p322
aS'C26-b9809574'
p323
aS'C21-d4703ebd'
p324
aS'C24-cafb4e4d'
p325
aS'C26-b13f4ade'
p326
aS'C3-6f67f7e5'
p327
aS'C16-b688c8cc'
p328
aS'C18-7b06fafe'
p329
aS'C2-e77e5e6e'
p330
aS'C7-468a0854'
p331
aS'C3-2cbec47f'
p332
aS'C25-9b3e8820'
p333
aS'C2-a796837e'
p334
aS'C14-f862f261'
p335
aS'C12-3563ab62'
p336
aS'C7-0c41b6a1'
p337
aS'C21-dfcfc3fa'
p338
aS'C7-26a81064'
p339
aS'C3-aa8c1539'
p340
aS'C20-a458ea53'
p341
aS'C2-8947f767'
p342
aS'C14-cfef1c29'
p343
aS'C25-445bbe3b'
p344
aS'C2-38a947a1'
p345
aS'C9-7cc72ec2'
p346
aS'C5-43b19349'
p347
aS'C3-74e1a23a'
p348
aS'C24-b34f3128'
p349
aS'C4-6a14f9b9'
p350
aS'C20-5840adea'
p351
aS'C10-451bd4e4'
p352
aS'C26-9904c656'
p353
aS'C4-c18be181'
p354
aS'C5-25c83c98'
p355
aS'C19-'
p356
aS'C1-8cf07265'
p357
aS'C18-bbf70d82'
p358
aS'C19-cf99e5de'
p359
aS'C1-5bfa8ab5'
p360
aS'C18-c21c3e4c'
p361
aS'C4-c7043c4b'
p362
aS'C13-5978055e'
p363
aS'C16-31ca40b6'
p364
aS'C13-7f0d7407'
p365
aS'C18-e88ffc9d'
p366
aS'C2-95e2d337'
p367
aS'C10-fbbf2c95'
p368
aS'C18-262c8681'
p369
aS'C12-e0d76380'
p370
aS'C2-bfdcfc4a'
p371
aS'C15-2ee9f086'
p372
aS'C11-68357db6'
p373
aS'C10-5162b19c'
p374
aS'C7-88002ee1'
p375
aS'C6-13718bbd'
p376
aS'C20-'
p377
aS'C2-68aede49'
p378
aS'C11-c4adf918'
p379
aS'C25-e8b83407'
p380
aS'C19-55dd3565'
p381
aS'C16-89052618'
p382
aS'C24-43f13e8b'
p383
aS'C15-0f942372'
p384
aS'C12-ae1bb660'
p385
aS'C26-49d68486'
p386
aS'C26-731c3655'
p387
aS'C11-4ba74619'
p388
aS'C4-41274cd7'
p389
aS'C2-09e68b86'
p390
aS'C8-5b392875'
p391
aS'C18-281769c2'
p392
aS'C14-051219e6'
p393
aS'C18-b04e4670'
p394
aS'C24-c0d61a5c'
p395
aS'C18-a6f5dd38'
p396
aS'C23-85d5a995'
p397
aS'C15-f3635baf'
p398
aS'C2-78ccd99e'
p399
aS'C21-99c09e97'
p400
aS'C18-5aed7436'
p401
aS'C11-319687c9'
p402
aS'C2-1cfdf714'
p403
aS'C16-d37efe8c'
p404
aS'C18-fffe2a63'
p405
aS'C12-539c5644'
p406
aS'C7-197b4575'
p407
aS'C8-37e4aa92'
p408
aS'C15-ac182643'
p409
aS'C13-605bbc24'
p410
aS'C2-d833535f'
p411
aS'C16-587267a3'
p412
aS'C3-d032c263'
p413
aS'C1-9a89b36c'
p414
aS'C2-26a88120'
p415
aS'C15-a66dcf27'
p416
aS'C3-02cf9876'
p417
aS'C6-'
p418
aS'C10-3b08e48b'
p419
aS'C15-a733d362'
p420
atRp421
sS'feature_list'
p422
(lp423
S'C9-a73ee510'
p424
aS'C22-'
p425
aS'C17-e5ba7672'
p426
aS'C26-'
p427
aS'C23-32c7478e'
p428
aS'C6-7e0ccccf'
p429
aS'C14-b28479f6'
p430
aS'C19-21ddcdc9'
p431
aS'C14-07d13a8f'
p432
aS'C10-3b08e48b'
p433
aS'C6-fbad5c96'
p434
aS'C23-3a171ecb'
p435
aS'C20-b1252a9d'
p436
aS'C20-5840adea'
p437
aS'C6-fe6b92e5'
p438
aS'C20-a458ea53'
p439
aS'C14-1adce6ef'
p440
aS'C25-001f3601'
p441
aS'C22-ad3062eb'
p442
aS'C17-07c540c4'
p443
aS'C6-'
p444
aS'C23-423fab69'
p445
aS'C17-d4bb7bd8'
p446
aS'C2-38a947a1'
p447
aS'C25-e8b83407'
p448
aS'C9-7cc72ec2'
p449
as.